ccopy_reg
_reconstructor
p0
(csympy.matrices.dense
MutableDenseMatrix
p1
c__builtin__
object
p2
Ntp3
Rp4
(dp5
S'rows'
p6
I8
sS'_mat'
p7
(lp8
csympy.core.numbers
Zero
p9
(tRp10
(dp11
bacsympy.core.mul
Mul
p12
(csympy.core.numbers
Float
p13
((I1
S'139eb851eb8521L'
p14
I-50
I53
tp15
tp16
Rp17
(dp18
S'_prec'
p19
I53
sbcsympy.core.symbol
Symbol
p20
(S'A'
p21
tp22
Rp23
(dp24
S'_assumptions'
p25
g0
(csympy.core.assumptions
StdFactKB
p26
c__builtin__
dict
p27
(dp28
S'polar'
p29
NsS'commutative'
p30
I01
sS'antihermitian'
p31
NsS'nonpositive'
p32
NsS'positive'
p33
NsS'negative'
p34
NsS'nonnegative'
p35
NsS'algebraic'
p36
NsS'zero'
p37
NsS'complex'
p38
NsS'rational'
p39
NsS'infinite'
p40
NsS'hermitian'
p41
NsS'finite'
p42
NsS'irrational'
p43
Nstp44
Rp45
sbg20
(S'l'
p46
tp47
Rp48
(dp49
g25
g0
(g26
g27
(dp50
S'real'
p51
Nsg29
Nsg43
Nsg31
Nsg32
Nsg36
Nsg41
Nsg40
NsS'integer'
p52
NsS'imaginary'
p53
NsS'odd'
p54
NsS'even'
p55
Nsg30
I01
sg37
Nsg33
Nsg34
Nsg35
Nsg38
Nsg39
Nsg42
Nstp56
Rp57
sbg20
(S'rho'
p58
tp59
Rp60
(dp61
g25
g0
(g26
g27
(dp62
g29
Nsg30
I01
sg31
Nsg32
Nsg33
Nsg34
Nsg35
Nsg36
Nsg37
Nsg38
Nsg39
Nsg40
Nsg41
Nsg42
Nsg43
Nstp63
Rp64
sbtp65
Rp66
(dp67
bag10
ag12
(g13
((I1
S'68a3d70a3d70bL'
p68
I-51
I51
tp69
tp70
Rp71
(dp72
g19
I53
sbg23
g60
csympy.core.power
Pow
p73
(g48
csympy.core.numbers
Integer
p74
(I2
tp75
Rp76
(dp77
btp78
Rp79
(dp80
btp81
Rp82
(dp83
bag10
ag12
(g13
((I1
S'139eb851eb851dL'
p84
I-50
I53
tp85
tp86
Rp87
(dp88
g19
I53
sbg23
g48
g60
tp89
Rp90
(dp91
bag10
ag12
(g13
((I0
S'3451eb851eb85L'
p92
I-50
I50
tp93
tp94
Rp95
(dp96
g19
I53
sbg23
g60
g79
tp97
Rp98
(dp99
basS'cols'
p100
I1
sb.