ccopy_reg
_reconstructor
p0
(csympy.matrices.dense
MutableDenseMatrix
p1
c__builtin__
object
p2
Ntp3
Rp4
(dp5
S'rows'
p6
I8
sS'_mat'
p7
(lp8
csympy.core.mul
Mul
p9
(csympy.core.numbers
Rational
p10
(I13
I35
tp11
Rp12
(dp13
bcsympy.core.symbol
Symbol
p14
(S'A'
p15
tp16
Rp17
(dp18
S'_assumptions'
p19
g0
(csympy.core.assumptions
StdFactKB
p20
c__builtin__
dict
p21
(dp22
S'commutative'
p23
I01
sS'antihermitian'
p24
NsS'nonpositive'
p25
NsS'positive'
p26
NsS'negative'
p27
NsS'nonnegative'
p28
NsS'algebraic'
p29
NsS'zero'
p30
NsS'complex'
p31
NsS'rational'
p32
NsS'infinite'
p33
NsS'hermitian'
p34
NsS'finite'
p35
NsS'irrational'
p36
Nstp37
Rp38
sbg14
(S'l'
p39
tp40
Rp41
(dp42
g19
g0
(g20
g21
(dp43
S'real'
p44
Nsg36
Nsg24
Nsg25
Nsg29
Nsg34
Nsg33
NsS'integer'
p45
NsS'imaginary'
p46
NsS'odd'
p47
NsS'even'
p48
Nsg23
I01
sg30
Nsg26
Nsg27
Nsg28
Nsg31
Nsg32
Nsg35
Nstp49
Rp50
sbg14
(S'rho'
p51
tp52
Rp53
(dp54
g19
g0
(g20
g21
(dp55
g23
I01
sg24
Nsg25
Nsg26
Nsg27
Nsg28
Nsg29
Nsg30
Nsg31
Nsg32
Nsg33
Nsg34
Nsg35
Nsg36
Nstp56
Rp57
sbtp58
Rp59
(dp60
bacsympy.core.numbers
Zero
p61
(tRp62
(dp63
bag9
(g10
(I11
I210
tp64
Rp65
(dp66
bg17
g53
csympy.core.power
Pow
p67
(g41
csympy.core.numbers
Integer
p68
(I2
tp69
Rp70
(dp71
btp72
Rp73
(dp74
btp75
Rp76
(dp77
bag62
ag9
(g10
(I9
I70
tp78
Rp79
(dp80
bg17
g41
g53
tp81
Rp82
(dp83
bag62
ag9
(g10
(I-13
I420
tp84
Rp85
(dp86
bg17
g53
g73
tp87
Rp88
(dp89
bag62
ag62
ag59
ag62
ag76
ag62
ag82
ag62
ag88
ag76
ag62
ag9
(g10
(I1
I105
tp90
Rp91
(dp92
bg17
g53
g67
(g41
g68
(I3
tp93
Rp94
(dp95
btp96
Rp97
(dp98
btp99
Rp100
(dp101
bag62
ag9
(g10
(I13
I420
tp102
Rp103
(dp104
bg17
g53
g73
tp105
Rp106
(dp107
bag62
ag9
(g10
(I-1
I140
tp108
Rp109
(dp110
bg17
g53
g97
tp111
Rp112
(dp113
bag62
ag62
ag76
ag62
ag100
ag62
ag106
ag62
ag112
ag9
(g79
g17
g41
g53
tp114
Rp115
(dp116
bag62
ag106
ag62
ag9
(g12
g17
g41
g53
tp117
Rp118
(dp119
bag62
ag9
(g10
(I-11
I210
tp120
Rp121
(dp122
bg17
g53
g73
tp123
Rp124
(dp125
bag62
ag62
ag115
ag62
ag106
ag62
ag118
ag62
ag124
ag9
(g85
g17
g53
g73
tp126
Rp127
(dp128
bag62
ag9
(g109
g17
g53
g97
tp129
Rp130
(dp131
bag62
ag124
ag62
ag9
(g91
g17
g53
g97
tp132
Rp133
(dp134
bag62
ag62
ag127
ag62
ag130
ag62
ag124
ag62
ag133
asS'cols'
p135
I8
sb.